; Function Attrs: mustprogress uwtable
define internal void @"_ZNSt17_Function_handlerIFN7rocksdb6StatusERKNS0_13ConfigOptionsERKNSt7__cxx1112basic_stringIcSt11char_traitsIcESaIcEEESC_PvENS0_3$_0EE9_M_invokeERKSt9_Any_dataS4_SC_SC_OSD_"(ptr dead_on_unwind noalias writable writeonly sret(%"class.rocksdb::Status") align 8 captures(none) initializes((0, 6), (8, 16)) %0, ptr nonnull readnone align 8 captures(none) %1, ptr nonnull readnone align 8 captures(none) %2, ptr nonnull readnone align 8 captures(none) %3, ptr noundef nonnull align 8 dereferenceable(32) %4, ptr noundef nonnull readonly align 8 captures(none) dereferenceable(8) %5) #4 align 2 personality ptr @__gxx_personality_v0 {
  %.val = load ptr, ptr %5, align 8, !tbaa !175
  tail call void @llvm.experimental.noalias.scope.decl(metadata !176)
  tail call void @llvm.experimental.noalias.scope.decl(metadata !179)
  tail call void @llvm.experimental.noalias.scope.decl(metadata !182)
  %7 = tail call noundef double @_ZN7rocksdb11ParseDoubleERKNSt7__cxx1112basic_stringIcSt11char_traitsIcESaIcEEE(ptr noundef nonnull align 8 dereferenceable(32) %4), !noalias !185
  %8 = getelementptr inbounds nuw i8, ptr %.val, i64 32
  %9 = bitcast double %7 to i64
  store atomic i64 %9, ptr %8 seq_cst, align 8, !noalias !185
  %10 = getelementptr inbounds nuw i8, ptr %0, i64 8
  store ptr null, ptr %10, align 8, !tbaa !18, !alias.scope !186
  tail call void @llvm.memset.p0.i64(ptr noundef nonnull align 8 dereferenceable(16) %0, i8 0, i64 6, i1 false), !alias.scope !186
  ret void
}